target datalayout = "e-m:e-p270:32:32-p271:32:32-p272:64:64-i64:64-i128:128-f80:128-n8:16:32:64-S128"
target triple = "x86_64-pc-linux-gnu"

%struct.H5O_linfo_postcopy_ud_t = type { ptr, ptr, ptr, ptr }
%struct.H5O_loc_t = type { ptr, i64, i8 }
%struct.H5O_link_t = type { i32, i8, i64, i32, ptr, %union.anon }
%union.anon = type { %struct.H5O_link_ud_t }
%struct.H5O_link_ud_t = type { ptr, i64 }

@H5O_init_g = external global i8, align 1
@H5_libterm_g = external global i8, align 1
@.str.1 = private unnamed_addr constant [102 x i8] c"generated/home/dtcxzyw/WorkSpace/Projects/compilers/llvm-opt-benchmark/bench/hdf5/hdf5/src/H5Olinfo.c\00", align 1
@H5E_OHDR_g = external global i64, align 8
@H5E_CANTCOPY_g = external global i64, align 8
@__func__.H5O__linfo_post_copy_file_cb = private unnamed_addr constant [29 x i8] c"H5O__linfo_post_copy_file_cb\00", align 1
@.str.12 = private unnamed_addr constant [20 x i8] c"unable to copy link\00", align 1
@H5E_CANTINSERT_g = external global i64, align 8
@.str.13 = private unnamed_addr constant [34 x i8] c"unable to insert destination link\00", align 1

; Function Attrs: nounwind uwtable
define internal i32 @H5O__linfo_post_copy_file_cb(ptr noundef %0, ptr noundef %1) #0 {
  %3 = alloca i32, align 4
  %4 = alloca ptr, align 8
  %5 = alloca ptr, align 8
  %6 = alloca ptr, align 8
  %7 = alloca %struct.H5O_link_t, align 8
  %8 = alloca i8, align 1
  %9 = alloca i32, align 4
  %10 = alloca i8, align 1
  %11 = alloca i64, align 8
  %12 = alloca i32, align 4
  store ptr %0, ptr %4, align 8, !tbaa !65
  store ptr %1, ptr %5, align 8, !tbaa !21
  call void @llvm.lifetime.start.p0(i64 8, ptr %6) #6
  %13 = load ptr, ptr %5, align 8, !tbaa !21
  store ptr %13, ptr %6, align 8, !tbaa !21
  call void @llvm.lifetime.start.p0(i64 48, ptr %7) #6
  call void @llvm.lifetime.start.p0(i64 1, ptr %8) #6
  store i8 0, ptr %8, align 1, !tbaa !22
  call void @llvm.lifetime.start.p0(i64 4, ptr %9) #6
  store i32 0, ptr %9, align 4, !tbaa !10
  call void @llvm.lifetime.start.p0(i64 1, ptr %10) #6
  store i8 0, ptr %10, align 1, !tbaa !22
  %14 = load i8, ptr @H5O_init_g, align 1, !tbaa !22, !range !24, !noundef !25
  %15 = trunc i8 %14 to i1
  br i1 %15, label %20, label %16

16:                                               ; preds = %2
  %17 = load i8, ptr @H5_libterm_g, align 1, !tbaa !22, !range !24, !noundef !25
  %18 = trunc i8 %17 to i1
  %19 = xor i1 %18, true
  br label %20

20:                                               ; preds = %16, %2
  %21 = phi i1 [ true, %2 ], [ %19, %16 ]
  %22 = xor i1 %21, true
  %23 = xor i1 %22, true
  %24 = zext i1 %23 to i32
  %25 = sext i32 %24 to i64
  %26 = call i64 @llvm.expect.i64(i64 %25, i64 1)
  %27 = icmp ne i64 %26, 0
  br i1 %27, label %28, label %104

28:                                               ; preds = %20
  %29 = load ptr, ptr %6, align 8, !tbaa !21
  %30 = getelementptr inbounds nuw %struct.H5O_linfo_postcopy_ud_t, ptr %29, i32 0, i32 1
  %31 = load ptr, ptr %30, align 8, !tbaa !58
  %32 = getelementptr inbounds nuw %struct.H5O_loc_t, ptr %31, i32 0, i32 0
  %33 = load ptr, ptr %32, align 8, !tbaa !61
  %34 = load ptr, ptr %4, align 8, !tbaa !65
  %35 = load ptr, ptr %6, align 8, !tbaa !21
  %36 = getelementptr inbounds nuw %struct.H5O_linfo_postcopy_ud_t, ptr %35, i32 0, i32 0
  %37 = load ptr, ptr %36, align 8, !tbaa !56
  %38 = load ptr, ptr %6, align 8, !tbaa !21
  %39 = getelementptr inbounds nuw %struct.H5O_linfo_postcopy_ud_t, ptr %38, i32 0, i32 3
  %40 = load ptr, ptr %39, align 8, !tbaa !60
  %41 = call i32 @H5L__link_copy_file(ptr noundef %33, ptr noundef %34, ptr noundef %37, ptr noundef %7, ptr noundef %40)
  %42 = icmp slt i32 %41, 0
  br i1 %42, label %43, label %62

43:                                               ; preds = %28
  br label %44

44:                                               ; preds = %43
  br label %45

45:                                               ; preds = %44
  br label %46

46:                                               ; preds = %45
  %47 = load i64, ptr @H5E_OHDR_g, align 8, !tbaa !14
  %48 = load i64, ptr @H5E_CANTCOPY_g, align 8, !tbaa !14
  %49 = call i32 (ptr, ptr, i32, i64, i64, ptr, ...) @H5E_printf_stack(ptr noundef @.str.1, ptr noundef @__func__.H5O__linfo_post_copy_file_cb, i32 noundef 443, i64 noundef %47, i64 noundef %48, ptr noundef @.str.12)
  br label %50

50:                                               ; preds = %46
  br label %51

51:                                               ; preds = %50
  store i8 1, ptr %10, align 1, !tbaa !22
  %52 = load i8, ptr %10, align 1, !tbaa !22, !range !24, !noundef !25
  %53 = trunc i8 %52 to i1
  %54 = zext i1 %53 to i8
  store i8 %54, ptr %10, align 1, !tbaa !22
  br label %55

55:                                               ; preds = %51
  br label %56

56:                                               ; preds = %55
  br label %57

57:                                               ; preds = %56
  store i32 -1, ptr %9, align 4, !tbaa !10
  br label %98

58:                                               ; No predecessors!
  br label %59

59:                                               ; preds = %58
  br label %60

60:                                               ; preds = %59
  br label %61

61:                                               ; preds = %60
  br label %62

62:                                               ; preds = %61, %28
  store i8 1, ptr %8, align 1, !tbaa !22
  call void @llvm.lifetime.start.p0(i64 8, ptr %11) #6
  store i64 -1, ptr %11, align 8, !tbaa !14
  call void @H5AC_tag(i64 noundef 2, ptr noundef %11)
  %63 = load ptr, ptr %6, align 8, !tbaa !21
  %64 = getelementptr inbounds nuw %struct.H5O_linfo_postcopy_ud_t, ptr %63, i32 0, i32 1
  %65 = load ptr, ptr %64, align 8, !tbaa !58
  %66 = getelementptr inbounds nuw %struct.H5O_loc_t, ptr %65, i32 0, i32 0
  %67 = load ptr, ptr %66, align 8, !tbaa !61
  %68 = load ptr, ptr %6, align 8, !tbaa !21
  %69 = getelementptr inbounds nuw %struct.H5O_linfo_postcopy_ud_t, ptr %68, i32 0, i32 2
  %70 = load ptr, ptr %69, align 8, !tbaa !59
  %71 = call i32 @H5G__dense_insert(ptr noundef %67, ptr noundef %70, ptr noundef %7)
  %72 = icmp slt i32 %71, 0
  br i1 %72, label %73, label %93

73:                                               ; preds = %62
  br label %74

74:                                               ; preds = %73
  %75 = load i64, ptr %11, align 8, !tbaa !14
  call void @H5AC_tag(i64 noundef %75, ptr noundef null)
  br label %76

76:                                               ; preds = %74
  br label %77

77:                                               ; preds = %76
  %78 = load i64, ptr @H5E_OHDR_g, align 8, !tbaa !14
  %79 = load i64, ptr @H5E_CANTINSERT_g, align 8, !tbaa !14
  %80 = call i32 (ptr, ptr, i32, i64, i64, ptr, ...) @H5E_printf_stack(ptr noundef @.str.1, ptr noundef @__func__.H5O__linfo_post_copy_file_cb, i32 noundef 452, i64 noundef %78, i64 noundef %79, ptr noundef @.str.13)
  br label %81

81:                                               ; preds = %77
  br label %82

82:                                               ; preds = %81
  store i8 1, ptr %10, align 1, !tbaa !22
  %83 = load i8, ptr %10, align 1, !tbaa !22, !range !24, !noundef !25
  %84 = trunc i8 %83 to i1
  %85 = zext i1 %84 to i8
  store i8 %85, ptr %10, align 1, !tbaa !22
  br label %86

86:                                               ; preds = %82
  br label %87

87:                                               ; preds = %86
  br label %88

88:                                               ; preds = %87
  store i32 -1, ptr %9, align 4, !tbaa !10
  store i32 10, ptr %12, align 4
  br label %95

89:                                               ; No predecessors!
  br label %90

90:                                               ; preds = %89
  br label %91

91:                                               ; preds = %90
  br label %92

92:                                               ; preds = %91
  br label %93

93:                                               ; preds = %92, %62
  %94 = load i64, ptr %11, align 8, !tbaa !14
  call void @H5AC_tag(i64 noundef %94, ptr noundef null)
  store i32 0, ptr %12, align 4
  br label %95

95:                                               ; preds = %88, %93
  call void @llvm.lifetime.end.p0(i64 8, ptr %11) #6
  %96 = load i32, ptr %12, align 4
  switch i32 %96, label %106 [
    i32 0, label %97
    i32 10, label %98
  ]

97:                                               ; preds = %95
  br label %98

98:                                               ; preds = %97, %95, %57
  %99 = load i8, ptr %8, align 1, !tbaa !22, !range !24, !noundef !25
  %100 = trunc i8 %99 to i1
  br i1 %100, label %101, label %103

101:                                              ; preds = %98
  %102 = call i32 @H5O_msg_reset(i32 noundef 6, ptr noundef %7)
  br label %103

103:                                              ; preds = %101, %98
  br label %104

104:                                              ; preds = %103, %20
  %105 = load i32, ptr %9, align 4, !tbaa !10
  store i32 %105, ptr %3, align 4
  store i32 1, ptr %12, align 4
  br label %106

106:                                              ; preds = %104, %95
  call void @llvm.lifetime.end.p0(i64 1, ptr %10) #6
  call void @llvm.lifetime.end.p0(i64 4, ptr %9) #6
  call void @llvm.lifetime.end.p0(i64 1, ptr %8) #6
  call void @llvm.lifetime.end.p0(i64 48, ptr %7) #6
  call void @llvm.lifetime.end.p0(i64 8, ptr %6) #6
  %107 = load i32, ptr %3, align 4
  ret i32 %107
}