; Function Attrs: nounwind uwtable
define internal range(i32 -1, 1) i32 @H5O__linfo_post_copy_file_cb(ptr noundef %0, ptr noundef readonly captures(none) %1) #0 {
  %3 = alloca %struct.H5O_link_t, align 8
  %4 = alloca i64, align 8
  call void @llvm.lifetime.start.p0(i64 48, ptr nonnull %3) #7
  %5 = load i8, ptr @H5O_init_g, align 1, !tbaa !3, !range !7, !noundef !8
  %6 = trunc nuw i8 %5 to i1
  %7 = load i8, ptr @H5_libterm_g, align 1, !range !7
  %8 = trunc nuw i8 %7 to i1
  %9 = xor i1 %8, true
  %10 = select i1 %6, i1 true, i1 %9
  br i1 %10, label %11, label %38, !prof !9

11:                                               ; preds = %2
  %12 = getelementptr inbounds nuw i8, ptr %1, i64 8
  %13 = load ptr, ptr %12, align 8, !tbaa !45
  %14 = load ptr, ptr %13, align 8, !tbaa !48
  %15 = load ptr, ptr %1, align 8, !tbaa !40
  %16 = getelementptr inbounds nuw i8, ptr %1, i64 24
  %17 = load ptr, ptr %16, align 8, !tbaa !47
  %18 = call i32 @H5L__link_copy_file(ptr noundef %14, ptr noundef %0, ptr noundef %15, ptr noundef nonnull %3, ptr noundef %17) #7
  %19 = icmp sgt i32 %18, -1
  br i1 %19, label %20, label %32

20:                                               ; preds = %11
  call void @llvm.lifetime.start.p0(i64 8, ptr nonnull %4) #7
  store i64 -1, ptr %4, align 8, !tbaa !10
  call void @H5AC_tag(i64 noundef 2, ptr noundef nonnull %4) #7
  %21 = load ptr, ptr %12, align 8, !tbaa !45
  %22 = load ptr, ptr %21, align 8, !tbaa !48
  %23 = getelementptr inbounds nuw i8, ptr %1, i64 16
  %24 = load ptr, ptr %23, align 8, !tbaa !46
  %25 = call i32 @H5G__dense_insert(ptr noundef %22, ptr noundef %24, ptr noundef nonnull %3) #7
  %26 = icmp slt i32 %25, 0
  %27 = load i64, ptr %4, align 8, !tbaa !10
  call void @H5AC_tag(i64 noundef %27, ptr noundef null) #7
  br i1 %26, label %28, label %36

28:                                               ; preds = %20
  %29 = load i64, ptr @H5E_OHDR_g, align 8, !tbaa !10
  %30 = load i64, ptr @H5E_CANTINSERT_g, align 8, !tbaa !10
  %31 = call i32 (ptr, ptr, i32, i64, i64, ptr, ...) @H5E_printf_stack(ptr noundef nonnull @.str.1, ptr noundef nonnull @__func__.H5O__linfo_post_copy_file_cb, i32 noundef 452, i64 noundef %29, i64 noundef %30, ptr noundef nonnull @.str.13) #7
  br label %36

32:                                               ; preds = %11
  %33 = load i64, ptr @H5E_OHDR_g, align 8, !tbaa !10
  %34 = load i64, ptr @H5E_CANTCOPY_g, align 8, !tbaa !10
  %35 = call i32 (ptr, ptr, i32, i64, i64, ptr, ...) @H5E_printf_stack(ptr noundef nonnull @.str.1, ptr noundef nonnull @__func__.H5O__linfo_post_copy_file_cb, i32 noundef 443, i64 noundef %33, i64 noundef %34, ptr noundef nonnull @.str.12) #7
  br label %38

36:                                               ; preds = %20, %28
  %.2 = phi i32 [ -1, %28 ], [ 0, %20 ]
  call void @llvm.lifetime.end.p0(i64 8, ptr nonnull %4) #7
  %37 = call i32 @H5O_msg_reset(i32 noundef 6, ptr noundef nonnull %3) #7
  br label %38

38:                                               ; preds = %32, %2, %36
  %.014 = phi i32 [ %.2, %36 ], [ -1, %32 ], [ 0, %2 ]
  call void @llvm.lifetime.end.p0(i64 48, ptr nonnull %3) #7
  ret i32 %.014
}